target datalayout = "e-m:e-p270:32:32-p271:32:32-p272:64:64-i64:64-i128:128-f80:128-n8:16:32:64-S128"
target triple = "x86_64-pc-linux-gnu"

%struct.darktable_t = type { %struct.dt_codepath_t, i32, i32, ptr, ptr, ptr, ptr, ptr, ptr, ptr, ptr, ptr, ptr, ptr, ptr, ptr, ptr, ptr, ptr, ptr, ptr, ptr, ptr, ptr, ptr, ptr, ptr, ptr, ptr, ptr, [64 x %struct.dt_pthread_mutex_t], %struct.dt_pthread_mutex_t, %struct.dt_pthread_mutex_t, %struct.dt_pthread_mutex_t, %struct.dt_pthread_mutex_t, %struct.dt_pthread_mutex_t, ptr, ptr, ptr, ptr, ptr, ptr, ptr, ptr, ptr, ptr, ptr, ptr, ptr, %struct.dt_lua_state_t, ptr, double, ptr, i32, [47 x i32], i32, i32, ptr, ptr, %struct.dt_sys_resources_t, %struct.dt_backthumb_t, %struct.dt_gimp_t }
%struct.dt_codepath_t = type { i8, [3 x i8] }
%struct.dt_pthread_mutex_t = type { %union.pthread_mutex_t }
%union.pthread_mutex_t = type { %struct.__pthread_mutex_s }
%struct.__pthread_mutex_s = type { i32, i32, i32, i32, i32, i16, i16, %struct.__pthread_internal_list }
%struct.__pthread_internal_list = type { ptr, ptr }
%struct.dt_lua_state_t = type { i32 }
%struct.dt_sys_resources_t = type { i64, i64, ptr, ptr, i32 }
%struct.dt_backthumb_t = type { double, double, i32, i32, i32, i32 }
%struct.dt_gimp_t = type { i32, ptr, ptr, i32, i32 }
%struct.dt_camctl_t = type { %struct.dt_pthread_mutex_t, %struct.dt_pthread_mutex_t, i64, ptr, ptr, ptr, ptr, ptr, ptr, ptr, ptr, i32, i32, i32 }
%struct.dt_camera_t = type { ptr, ptr, %struct.CameraText, ptr, ptr, %struct.dt_pthread_mutex_t, i32, i32, i32, i32, i32, i32, i32, i32, i32, ptr, %struct.dt_pthread_mutex_t, ptr, %struct.anon, ptr, ptr, i32, i32, i32, i32, ptr, i32, i32, i32, i32, i32, i32, i32, i32, i64, %struct.dt_pthread_mutex_t, %struct.dt_pthread_mutex_t }
%struct.CameraText = type { [32768 x i8] }
%struct.anon = type { ptr, i32 }
%struct._GList = type { ptr, ptr, ptr }
%struct.dt_camctl_listener_t = type { ptr, ptr, ptr, ptr, ptr, ptr, ptr, ptr, ptr, ptr, ptr }

@darktable = external global %struct.darktable_t, align 8
@.str.18 = private unnamed_addr constant [38 x i8] c"[camera_control] enabling tether mode\00", align 1
@.str.19 = private unnamed_addr constant [39 x i8] c"[camera_control] disabling tether mode\00", align 1
@.str.20 = private unnamed_addr constant [59 x i8] c"[camera_control] failed to set tether mode with reason: %s\00", align 1
@.str.21 = private unnamed_addr constant [41 x i8] c"device does not support tethered capture\00", align 1
@.str.22 = private unnamed_addr constant [17 x i8] c"no active camera\00", align 1
@.str.77 = private unnamed_addr constant [46 x i8] c"[camera_control] camera control locked for %s\00", align 1

; Function Attrs: inlinehint nounwind uwtable
define internal i32 @dt_pthread_mutex_unlock(ptr noundef %0) #4 {
  %2 = alloca ptr, align 8
  store ptr %0, ptr %2, align 8, !tbaa !91
  %3 = load ptr, ptr %2, align 8, !tbaa !91
  %4 = getelementptr inbounds nuw %struct.dt_pthread_mutex_t, ptr %3, i32 0, i32 0
  %5 = call i32 @pthread_mutex_unlock(ptr noundef %4) #10
  ret i32 %5
}

; Function Attrs: inlinehint nounwind uwtable
define internal i32 @dt_pthread_mutex_lock(ptr noundef %0) #4 {
  %2 = alloca ptr, align 8
  store ptr %0, ptr %2, align 8, !tbaa !91
  %3 = load ptr, ptr %2, align 8, !tbaa !91
  %4 = getelementptr inbounds nuw %struct.dt_pthread_mutex_t, ptr %3, i32 0, i32 0
  %5 = call i32 @pthread_mutex_lock(ptr noundef %4) #10
  ret i32 %5
}

; Function Attrs: nounwind uwtable
define internal void @_dispatch_control_status(ptr noundef %0, i32 noundef %1) #0 {
  %3 = alloca ptr, align 8
  %4 = alloca i32, align 4
  %5 = alloca ptr, align 8
  %6 = alloca ptr, align 8
  %7 = alloca ptr, align 8
  store ptr %0, ptr %3, align 8, !tbaa !6
  store i32 %1, ptr %4, align 4, !tbaa !64
  call void @llvm.lifetime.start.p0(i64 8, ptr %5) #10
  %8 = load ptr, ptr %3, align 8, !tbaa !6
  store ptr %8, ptr %5, align 8, !tbaa !6
  %9 = load ptr, ptr %5, align 8, !tbaa !6
  %10 = getelementptr inbounds nuw %struct.dt_camctl_t, ptr %9, i32 0, i32 1
  %11 = call i32 @dt_pthread_mutex_lock(ptr noundef %10)
  call void @llvm.lifetime.start.p0(i64 8, ptr %6) #10
  %12 = load ptr, ptr %5, align 8, !tbaa !6
  %13 = getelementptr inbounds nuw %struct.dt_camctl_t, ptr %12, i32 0, i32 3
  %14 = load ptr, ptr %13, align 8, !tbaa !106
  store ptr %14, ptr %6, align 8, !tbaa !85
  br label %15

15:                                               ; preds = %44, %2
  %16 = load ptr, ptr %6, align 8, !tbaa !85
  %17 = icmp ne ptr %16, null
  br i1 %17, label %19, label %18

18:                                               ; preds = %15
  call void @llvm.lifetime.end.p0(i64 8, ptr %6) #10
  br label %46

19:                                               ; preds = %15
  call void @llvm.lifetime.start.p0(i64 8, ptr %7) #10
  %20 = load ptr, ptr %6, align 8, !tbaa !85
  %21 = getelementptr inbounds nuw %struct._GList, ptr %20, i32 0, i32 0
  %22 = load ptr, ptr %21, align 8, !tbaa !86
  store ptr %22, ptr %7, align 8, !tbaa !104
  %23 = load ptr, ptr %7, align 8, !tbaa !104
  %24 = getelementptr inbounds nuw %struct.dt_camctl_listener_t, ptr %23, i32 0, i32 1
  %25 = load ptr, ptr %24, align 8, !tbaa !131
  %26 = icmp ne ptr %25, null
  br i1 %26, label %27, label %35

27:                                               ; preds = %19
  %28 = load ptr, ptr %7, align 8, !tbaa !104
  %29 = getelementptr inbounds nuw %struct.dt_camctl_listener_t, ptr %28, i32 0, i32 1
  %30 = load ptr, ptr %29, align 8, !tbaa !131
  %31 = load i32, ptr %4, align 4, !tbaa !64
  %32 = load ptr, ptr %7, align 8, !tbaa !104
  %33 = getelementptr inbounds nuw %struct.dt_camctl_listener_t, ptr %32, i32 0, i32 0
  %34 = load ptr, ptr %33, align 8, !tbaa !128
  call void %30(i32 noundef %31, ptr noundef %34)
  br label %35

35:                                               ; preds = %27, %19
  call void @llvm.lifetime.end.p0(i64 8, ptr %7) #10
  br label %36

36:                                               ; preds = %35
  %37 = load ptr, ptr %6, align 8, !tbaa !85
  %38 = icmp ne ptr %37, null
  br i1 %38, label %39, label %43

39:                                               ; preds = %36
  %40 = load ptr, ptr %6, align 8, !tbaa !85
  %41 = getelementptr inbounds nuw %struct._GList, ptr %40, i32 0, i32 1
  %42 = load ptr, ptr %41, align 8, !tbaa !117
  br label %44

43:                                               ; preds = %36
  br label %44

44:                                               ; preds = %43, %39
  %45 = phi ptr [ %42, %39 ], [ null, %43 ]
  store ptr %45, ptr %6, align 8, !tbaa !85
  br label %15

46:                                               ; preds = %18
  %47 = load ptr, ptr %5, align 8, !tbaa !6
  %48 = getelementptr inbounds nuw %struct.dt_camctl_t, ptr %47, i32 0, i32 1
  %49 = call i32 @dt_pthread_mutex_unlock(ptr noundef %48)
  call void @llvm.lifetime.end.p0(i64 8, ptr %5) #10
  ret void
}

; Function Attrs: inlinehint nounwind uwtable
define internal i32 @dt_pthread_mutex_BAD_lock(ptr noundef %0) #4 {
  %2 = alloca ptr, align 8
  %3 = alloca i32, align 4
  store ptr %0, ptr %2, align 8, !tbaa !91
  call void @llvm.lifetime.start.p0(i64 4, ptr %3) #10
  %4 = load ptr, ptr %2, align 8, !tbaa !91
  %5 = getelementptr inbounds nuw %struct.dt_pthread_mutex_t, ptr %4, i32 0, i32 0
  %6 = call i32 @pthread_mutex_lock(ptr noundef %5) #10
  store i32 %6, ptr %3, align 4, !tbaa !64
  %7 = load i32, ptr %3, align 4, !tbaa !64
  call void @llvm.lifetime.end.p0(i64 4, ptr %3) #10
  ret i32 %7
}

; Function Attrs: nounwind uwtable
define internal void @_camctl_lock(ptr noundef %0, ptr noundef %1) #0 {
  %3 = alloca ptr, align 8
  %4 = alloca ptr, align 8
  %5 = alloca ptr, align 8
  store ptr %0, ptr %3, align 8, !tbaa !6
  store ptr %1, ptr %4, align 8, !tbaa !21
  call void @llvm.lifetime.start.p0(i64 8, ptr %5) #10
  %6 = load ptr, ptr %3, align 8, !tbaa !6
  store ptr %6, ptr %5, align 8, !tbaa !6
  %7 = load ptr, ptr %5, align 8, !tbaa !6
  %8 = getelementptr inbounds nuw %struct.dt_camctl_t, ptr %7, i32 0, i32 0
  %9 = call i32 @dt_pthread_mutex_BAD_lock(ptr noundef %8)
  br label %10

10:                                               ; preds = %2
  %11 = load i32, ptr getelementptr inbounds nuw (%struct.darktable_t, ptr @darktable, i32 0, i32 2), align 8, !tbaa !22
  %12 = and i32 32, %11
  %13 = icmp ne i32 %12, 0
  br i1 %13, label %14, label %23

14:                                               ; preds = %10
  %15 = load i32, ptr getelementptr inbounds nuw (%struct.darktable_t, ptr @darktable, i32 0, i32 2), align 8, !tbaa !22
  %16 = xor i32 %15, -1
  %17 = and i32 0, %16
  %18 = icmp ne i32 %17, 0
  br i1 %18, label %23, label %19

19:                                               ; preds = %14
  %20 = load ptr, ptr %4, align 8, !tbaa !21
  %21 = getelementptr inbounds nuw %struct.dt_camera_t, ptr %20, i32 0, i32 0
  %22 = load ptr, ptr %21, align 8, !tbaa !88
  call void (ptr, ...) @dt_print_ext(ptr noundef @.str.77, ptr noundef %22)
  br label %23

23:                                               ; preds = %19, %14, %10
  br label %24

24:                                               ; preds = %23
  br label %25

25:                                               ; preds = %24
  %26 = load ptr, ptr %4, align 8, !tbaa !21
  %27 = load ptr, ptr %5, align 8, !tbaa !6
  %28 = getelementptr inbounds nuw %struct.dt_camctl_t, ptr %27, i32 0, i32 10
  store ptr %26, ptr %28, align 8, !tbaa !11
  %29 = load ptr, ptr %3, align 8, !tbaa !6
  call void @_dispatch_control_status(ptr noundef %29, i32 noundef 0)
  call void @llvm.lifetime.end.p0(i64 8, ptr %5) #10
  ret void
}

; Function Attrs: nounwind uwtable
define void @dt_camctl_tether_mode(ptr noundef %0, ptr noundef %1, i32 noundef %2) #0 {
  %4 = alloca ptr, align 8
  %5 = alloca ptr, align 8
  %6 = alloca i32, align 4
  %7 = alloca ptr, align 8
  %8 = alloca ptr, align 8
  store ptr %0, ptr %4, align 8, !tbaa !6
  store ptr %1, ptr %5, align 8, !tbaa !21
  store i32 %2, ptr %6, align 4, !tbaa !64
  %9 = load ptr, ptr %5, align 8, !tbaa !21
  %10 = icmp eq ptr %9, null
  br i1 %10, label %11, label %15

11:                                               ; preds = %3
  %12 = load ptr, ptr %4, align 8, !tbaa !6
  %13 = getelementptr inbounds nuw %struct.dt_camctl_t, ptr %12, i32 0, i32 9
  %14 = load ptr, ptr %13, align 8, !tbaa !65
  store ptr %14, ptr %5, align 8, !tbaa !21
  br label %15

15:                                               ; preds = %11, %3
  %16 = load ptr, ptr %5, align 8, !tbaa !21
  %17 = icmp eq ptr %16, null
  br i1 %17, label %18, label %22

18:                                               ; preds = %15
  %19 = load ptr, ptr %4, align 8, !tbaa !6
  %20 = getelementptr inbounds nuw %struct.dt_camctl_t, ptr %19, i32 0, i32 10
  %21 = load ptr, ptr %20, align 8, !tbaa !11
  store ptr %21, ptr %5, align 8, !tbaa !21
  br label %22

22:                                               ; preds = %18, %15
  %23 = load ptr, ptr %5, align 8, !tbaa !21
  %24 = icmp eq ptr %23, null
  br i1 %24, label %25, label %36

25:                                               ; preds = %22
  %26 = load ptr, ptr %4, align 8, !tbaa !6
  %27 = getelementptr inbounds nuw %struct.dt_camctl_t, ptr %26, i32 0, i32 4
  %28 = load ptr, ptr %27, align 8, !tbaa !84
  %29 = icmp ne ptr %28, null
  br i1 %29, label %30, label %36

30:                                               ; preds = %25
  %31 = load ptr, ptr %4, align 8, !tbaa !6
  %32 = getelementptr inbounds nuw %struct.dt_camctl_t, ptr %31, i32 0, i32 4
  %33 = load ptr, ptr %32, align 8, !tbaa !84
  %34 = getelementptr inbounds nuw %struct._GList, ptr %33, i32 0, i32 0
  %35 = load ptr, ptr %34, align 8, !tbaa !86
  store ptr %35, ptr %5, align 8, !tbaa !21
  br label %36

36:                                               ; preds = %30, %25, %22
  %37 = load ptr, ptr %5, align 8, !tbaa !21
  %38 = icmp ne ptr %37, null
  br i1 %38, label %39, label %99

39:                                               ; preds = %36
  %40 = load ptr, ptr %5, align 8, !tbaa !21
  %41 = getelementptr inbounds nuw %struct.dt_camera_t, ptr %40, i32 0, i32 7
  %42 = load i32, ptr %41, align 4, !tbaa !114
  %43 = icmp ne i32 %42, 0
  br i1 %43, label %44, label %99

44:                                               ; preds = %39
  call void @llvm.lifetime.start.p0(i64 8, ptr %7) #10
  %45 = load ptr, ptr %4, align 8, !tbaa !6
  store ptr %45, ptr %7, align 8, !tbaa !6
  call void @llvm.lifetime.start.p0(i64 8, ptr %8) #10
  %46 = load ptr, ptr %5, align 8, !tbaa !21
  store ptr %46, ptr %8, align 8, !tbaa !21
  %47 = load i32, ptr %6, align 4, !tbaa !64
  %48 = icmp eq i32 %47, 1
  br i1 %48, label %49, label %79

49:                                               ; preds = %44
  %50 = load ptr, ptr %8, align 8, !tbaa !21
  %51 = getelementptr inbounds nuw %struct.dt_camera_t, ptr %50, i32 0, i32 14
  %52 = load i32, ptr %51, align 8, !tbaa !150
  %53 = icmp ne i32 %52, 1
  br i1 %53, label %54, label %79

54:                                               ; preds = %49
  %55 = load ptr, ptr %4, align 8, !tbaa !6
  %56 = load ptr, ptr %5, align 8, !tbaa !21
  call void @_camctl_lock(ptr noundef %55, ptr noundef %56)
  br label %57

57:                                               ; preds = %54
  %58 = load i32, ptr getelementptr inbounds nuw (%struct.darktable_t, ptr @darktable, i32 0, i32 2), align 8, !tbaa !22
  %59 = and i32 32, %58
  %60 = icmp ne i32 %59, 0
  br i1 %60, label %61, label %67

61:                                               ; preds = %57
  %62 = load i32, ptr getelementptr inbounds nuw (%struct.darktable_t, ptr @darktable, i32 0, i32 2), align 8, !tbaa !22
  %63 = xor i32 %62, -1
  %64 = and i32 0, %63
  %65 = icmp ne i32 %64, 0
  br i1 %65, label %67, label %66

66:                                               ; preds = %61
  call void (ptr, ...) @dt_print_ext(ptr noundef @.str.18)
  br label %67

67:                                               ; preds = %66, %61, %57
  br label %68

68:                                               ; preds = %67
  br label %69

69:                                               ; preds = %68
  %70 = load ptr, ptr %8, align 8, !tbaa !21
  %71 = load ptr, ptr %7, align 8, !tbaa !6
  %72 = getelementptr inbounds nuw %struct.dt_camctl_t, ptr %71, i32 0, i32 10
  store ptr %70, ptr %72, align 8, !tbaa !11
  %73 = load ptr, ptr %8, align 8, !tbaa !21
  %74 = getelementptr inbounds nuw %struct.dt_camera_t, ptr %73, i32 0, i32 14
  store i32 1, ptr %74, align 8, !tbaa !150
  %75 = load ptr, ptr %7, align 8, !tbaa !6
  %76 = getelementptr inbounds nuw %struct.dt_camctl_t, ptr %75, i32 0, i32 2
  %77 = load ptr, ptr %4, align 8, !tbaa !6
  %78 = call i32 @dt_pthread_create(ptr noundef %76, ptr noundef @_camera_event_thread, ptr noundef %77)
  br label %98

79:                                               ; preds = %49, %44
  %80 = load ptr, ptr %8, align 8, !tbaa !21
  %81 = getelementptr inbounds nuw %struct.dt_camera_t, ptr %80, i32 0, i32 24
  store i32 0, ptr %81, align 4, !tbaa !62
  %82 = load ptr, ptr %8, align 8, !tbaa !21
  %83 = getelementptr inbounds nuw %struct.dt_camera_t, ptr %82, i32 0, i32 14
  store i32 0, ptr %83, align 8, !tbaa !150
  br label %84

84:                                               ; preds = %79
  %85 = load i32, ptr getelementptr inbounds nuw (%struct.darktable_t, ptr @darktable, i32 0, i32 2), align 8, !tbaa !22
  %86 = and i32 32, %85
  %87 = icmp ne i32 %86, 0
  br i1 %87, label %88, label %94

88:                                               ; preds = %84
  %89 = load i32, ptr getelementptr inbounds nuw (%struct.darktable_t, ptr @darktable, i32 0, i32 2), align 8, !tbaa !22
  %90 = xor i32 %89, -1
  %91 = and i32 0, %90
  %92 = icmp ne i32 %91, 0
  br i1 %92, label %94, label %93

93:                                               ; preds = %88
  call void (ptr, ...) @dt_print_ext(ptr noundef @.str.19)
  br label %94

94:                                               ; preds = %93, %88, %84
  br label %95

95:                                               ; preds = %94
  br label %96

96:                                               ; preds = %95
  %97 = load ptr, ptr %4, align 8, !tbaa !6
  call void @_camctl_unlock(ptr noundef %97)
  br label %98

98:                                               ; preds = %96, %69
  call void @llvm.lifetime.end.p0(i64 8, ptr %8) #10
  call void @llvm.lifetime.end.p0(i64 8, ptr %7) #10
  br label %115

99:                                               ; preds = %39, %36
  br label %100

100:                                              ; preds = %99
  %101 = load i32, ptr getelementptr inbounds nuw (%struct.darktable_t, ptr @darktable, i32 0, i32 2), align 8, !tbaa !22
  %102 = and i32 32, %101
  %103 = icmp ne i32 %102, 0
  br i1 %103, label %104, label %113

104:                                              ; preds = %100
  %105 = load i32, ptr getelementptr inbounds nuw (%struct.darktable_t, ptr @darktable, i32 0, i32 2), align 8, !tbaa !22
  %106 = xor i32 %105, -1
  %107 = and i32 0, %106
  %108 = icmp ne i32 %107, 0
  br i1 %108, label %113, label %109

109:                                              ; preds = %104
  %110 = load ptr, ptr %5, align 8, !tbaa !21
  %111 = icmp ne ptr %110, null
  %112 = select i1 %111, ptr @.str.21, ptr @.str.22
  call void (ptr, ...) @dt_print_ext(ptr noundef @.str.20, ptr noundef %112)
  br label %113

113:                                              ; preds = %109, %104, %100
  br label %114

114:                                              ; preds = %113
  br label %115

115:                                              ; preds = %114, %98
  ret void
}