; Function Attrs: nounwind uwtable
define void @dt_camctl_tether_mode(ptr noundef %0, ptr noundef %1, i32 noundef %2) local_unnamed_addr #0 {
  %4 = icmp eq ptr %1, null
  br i1 %4, label %5, label %.thread35

5:                                                ; preds = %3
  %6 = getelementptr inbounds nuw i8, ptr %0, i64 136
  %7 = load ptr, ptr %6, align 8, !tbaa !61
  %8 = icmp eq ptr %7, null
  br i1 %8, label %9, label %.thread35

9:                                                ; preds = %5
  %10 = getelementptr inbounds nuw i8, ptr %0, i64 144
  %11 = load ptr, ptr %10, align 8, !tbaa !6
  %12 = icmp eq ptr %11, null
  br i1 %12, label %13, label %.thread35

13:                                               ; preds = %9
  %14 = getelementptr inbounds nuw i8, ptr %0, i64 96
  %15 = load ptr, ptr %14, align 8, !tbaa !77
  %.not = icmp eq ptr %15, null
  br i1 %.not, label %.thread41, label %16

16:                                               ; preds = %13
  %17 = load ptr, ptr %15, align 8, !tbaa !78
  %.not25 = icmp eq ptr %17, null
  br i1 %.not25, label %.thread41, label %.thread35

.thread35:                                        ; preds = %3, %5, %9, %16
  %.238 = phi ptr [ %17, %16 ], [ %11, %9 ], [ %7, %5 ], [ %1, %3 ]
  %18 = getelementptr inbounds nuw i8, ptr %.238, i64 32844
  %19 = load i32, ptr %18, align 4, !tbaa !110
  %.not26 = icmp eq i32 %19, 0
  br i1 %.not26, label %.thread41, label %20

20:                                               ; preds = %.thread35
  %21 = icmp eq i32 %2, 1
  br i1 %21, label %22, label %50

22:                                               ; preds = %20
  %23 = getelementptr inbounds nuw i8, ptr %.238, i64 32872
  %24 = load i32, ptr %23, align 8, !tbaa !144
  %.not28 = icmp eq i32 %24, 1
  br i1 %.not28, label %50, label %25

25:                                               ; preds = %22
  %26 = tail call i32 @pthread_mutex_lock(ptr noundef %0) #15
  %27 = load i32, ptr getelementptr inbounds nuw (i8, ptr @darktable, i64 8), align 8, !tbaa !19
  %28 = and i32 %27, 32
  %.not.i = icmp eq i32 %28, 0
  br i1 %.not.i, label %31, label %29

29:                                               ; preds = %25
  %30 = load ptr, ptr %.238, align 8, !tbaa !80
  tail call void (ptr, ...) @dt_print_ext(ptr noundef nonnull @.str.77, ptr noundef %30) #15
  br label %31

31:                                               ; preds = %29, %25
  %32 = getelementptr inbounds nuw i8, ptr %0, i64 144
  store ptr %.238, ptr %32, align 8, !tbaa !6
  %33 = getelementptr inbounds nuw i8, ptr %0, i64 40
  %34 = tail call i32 @pthread_mutex_lock(ptr noundef nonnull %33) #15
  %35 = getelementptr inbounds nuw i8, ptr %0, i64 88
  %.013.i.i = load ptr, ptr %35, align 8, !tbaa !83
  %.not14.i.i = icmp eq ptr %.013.i.i, null
  br i1 %.not14.i.i, label %_camctl_lock.exit, label %.lr.ph.i.i

.lr.ph.i.i:                                       ; preds = %31, %41
  %.015.i.i = phi ptr [ %.0.i.i, %41 ], [ %.013.i.i, %31 ]
  %36 = load ptr, ptr %.015.i.i, align 8, !tbaa !78
  %37 = getelementptr inbounds nuw i8, ptr %36, i64 8
  %38 = load ptr, ptr %37, align 8, !tbaa !126
  %.not12.i.i = icmp eq ptr %38, null
  br i1 %.not12.i.i, label %41, label %39

39:                                               ; preds = %.lr.ph.i.i
  %40 = load ptr, ptr %36, align 8, !tbaa !86
  tail call void %38(i32 noundef 0, ptr noundef %40) #15
  br label %41

41:                                               ; preds = %39, %.lr.ph.i.i
  %42 = getelementptr inbounds nuw i8, ptr %.015.i.i, i64 8
  %.0.i.i = load ptr, ptr %42, align 8, !tbaa !83
  %.not.i.i = icmp eq ptr %.0.i.i, null
  br i1 %.not.i.i, label %_camctl_lock.exit, label %.lr.ph.i.i

_camctl_lock.exit:                                ; preds = %41, %31
  %43 = tail call i32 @pthread_mutex_unlock(ptr noundef nonnull %33) #15
  %44 = load i32, ptr getelementptr inbounds nuw (i8, ptr @darktable, i64 8), align 8, !tbaa !19
  %45 = and i32 %44, 32
  %.not30 = icmp eq i32 %45, 0
  br i1 %.not30, label %47, label %46

46:                                               ; preds = %_camctl_lock.exit
  tail call void (ptr, ...) @dt_print_ext(ptr noundef nonnull @.str.18) #15
  br label %47

47:                                               ; preds = %46, %_camctl_lock.exit
  store ptr %.238, ptr %32, align 8, !tbaa !6
  store i32 1, ptr %23, align 8, !tbaa !144
  %48 = getelementptr inbounds nuw i8, ptr %0, i64 80
  %49 = tail call i32 @dt_pthread_create(ptr noundef nonnull %48, ptr noundef nonnull @_camera_event_thread, ptr noundef nonnull %0) #15
  br label %60

50:                                               ; preds = %22, %20
  %51 = getelementptr inbounds nuw i8, ptr %.238, i64 32980
  store i32 0, ptr %51, align 4, !tbaa !60
  %52 = getelementptr inbounds nuw i8, ptr %.238, i64 32872
  store i32 0, ptr %52, align 8, !tbaa !144
  %53 = load i32, ptr getelementptr inbounds nuw (i8, ptr @darktable, i64 8), align 8, !tbaa !19
  %54 = and i32 %53, 32
  %.not29 = icmp eq i32 %54, 0
  br i1 %.not29, label %56, label %55

55:                                               ; preds = %50
  tail call void (ptr, ...) @dt_print_ext(ptr noundef nonnull @.str.19) #15
  br label %56

56:                                               ; preds = %55, %50
  tail call fastcc void @_camctl_unlock(ptr noundef %0)
  br label %60

.thread41:                                        ; preds = %13, %16, %.thread35
  %.not2540 = phi ptr [ @.str.22, %16 ], [ @.str.21, %.thread35 ], [ @.str.22, %13 ]
  %57 = load i32, ptr getelementptr inbounds nuw (i8, ptr @darktable, i64 8), align 8, !tbaa !19
  %58 = and i32 %57, 32
  %.not27 = icmp eq i32 %58, 0
  br i1 %.not27, label %60, label %59

59:                                               ; preds = %.thread41
  tail call void (ptr, ...) @dt_print_ext(ptr noundef nonnull @.str.20, ptr noundef nonnull %.not2540) #15
  br label %60

60:                                               ; preds = %47, %56, %59, %.thread41
  ret void
}